target datalayout = "e-m:e-p270:32:32-p271:32:32-p272:64:64-i64:64-i128:128-f80:128-n8:16:32:64-S128"
target triple = "x86_64-unknown-linux-gnu"

%"class.fmt::v9::basic_string_view" = type { ptr, i64 }
%"class.std::allocator.8" = type { i8 }
%class.anon.12 = type { ptr }
%"class.fmt::v9::detail::utf8_to_utf16" = type { %"class.fmt::v9::basic_memory_buffer.6" }
%"class.fmt::v9::basic_memory_buffer.6" = type <{ %"class.fmt::v9::detail::buffer.7", [500 x i32], %"class.std::allocator.8", [7 x i8] }>
%"class.fmt::v9::detail::buffer.7" = type { ptr, ptr, i64, i64 }
%class.anon.35 = type { %class.anon.12 }

@.str.16 = private unnamed_addr constant [15 x i8] c"negative value\00", align 1
@_ZTVN3fmt2v919basic_memory_bufferIwLm500ESaIwEEE = linkonce_odr dso_local unnamed_addr constant { [3 x ptr] } { [3 x ptr] [ptr null, ptr @_ZTIN3fmt2v919basic_memory_bufferIwLm500ESaIwEEE, ptr @_ZN3fmt2v919basic_memory_bufferIwLm500ESaIwEE4growEm] }, comdat, align 8
@_ZTVN3fmt2v96detail6bufferIwEE = linkonce_odr dso_local unnamed_addr constant { [3 x ptr] } { [3 x ptr] [ptr null, ptr @_ZTIN3fmt2v96detail6bufferIwEE, ptr @__cxa_pure_virtual] }, comdat, align 8

; Function Attrs: mustprogress nounwind uwtable
define linkonce_odr dso_local void @_ZN3fmt2v96detail13ignore_unusedIJbA15_cEEEvDpRKT_(ptr noundef nonnull align 1 dereferenceable(1) %0, ptr noundef nonnull align 1 dereferenceable(15) %1) #4 comdat {
entry:
  %.addr = alloca ptr, align 8
  %.addr1 = alloca ptr, align 8
  store ptr %0, ptr %.addr, align 8
  store ptr %1, ptr %.addr1, align 8
  ret void
}

; Function Attrs: mustprogress uwtable
define linkonce_odr dso_local noundef i64 @_ZN3fmt2v96detail11to_unsignedIlEENSt13make_unsignedIT_E4typeES4_(i64 noundef %value) #3 comdat {
entry:
  %value.addr = alloca i64, align 8
  %ref.tmp = alloca i8, align 1
  store i64 %value, ptr %value.addr, align 8
  %0 = load i64, ptr %value.addr, align 8
  %cmp = icmp sge i64 %0, 0
  %frombool = zext i1 %cmp to i8
  store i8 %frombool, ptr %ref.tmp, align 1
  call void @_ZN3fmt2v96detail13ignore_unusedIJbA15_cEEEvDpRKT_(ptr noundef nonnull align 1 dereferenceable(1) %ref.tmp, ptr noundef nonnull align 1 dereferenceable(15) @.str.16)
  %1 = load i64, ptr %value.addr, align 8
  ret i64 %1
}

; Function Attrs: mustprogress uwtable
define linkonce_odr dso_local void @_ZN3fmt2v96detail6bufferIwE11try_reserveEm(ptr noundef nonnull align 8 dereferenceable(32) %this, i64 noundef %new_capacity) #3 comdat align 2 {
entry:
  %this.addr = alloca ptr, align 8
  %new_capacity.addr = alloca i64, align 8
  store ptr %this, ptr %this.addr, align 8
  store i64 %new_capacity, ptr %new_capacity.addr, align 8
  %this1 = load ptr, ptr %this.addr, align 8
  %0 = load i64, ptr %new_capacity.addr, align 8
  %capacity_ = getelementptr inbounds %"class.fmt::v9::detail::buffer.7", ptr %this1, i32 0, i32 3
  %1 = load i64, ptr %capacity_, align 8
  %cmp = icmp ugt i64 %0, %1
  br i1 %cmp, label %if.then, label %if.end

if.then:                                          ; preds = %entry
  %2 = load i64, ptr %new_capacity.addr, align 8
  %vtable = load ptr, ptr %this1, align 8
  %vfn = getelementptr inbounds ptr, ptr %vtable, i64 0
  %3 = load ptr, ptr %vfn, align 8
  call void %3(ptr noundef nonnull align 8 dereferenceable(32) %this1, i64 noundef %2)
  br label %if.end

if.end:                                           ; preds = %if.then, %entry
  ret void
}

; Function Attrs: mustprogress uwtable
define linkonce_odr dso_local noundef ptr @_ZN3fmt2v96detail8copy_strIcKccTnNSt9enable_ifIXaasr3std7is_sameINSt12remove_constIT0_E4typeET1_EE5valuesr7is_charIS9_EE5valueEiE4typeELi0EEEPS9_PS6_SD_SC_(ptr noundef %begin, ptr noundef %end, ptr noundef %out) #3 comdat {
entry:
  %begin.addr = alloca ptr, align 8
  %end.addr = alloca ptr, align 8
  %out.addr = alloca ptr, align 8
  %size = alloca i64, align 8
  store ptr %begin, ptr %begin.addr, align 8
  store ptr %end, ptr %end.addr, align 8
  store ptr %out, ptr %out.addr, align 8
  %0 = load ptr, ptr %end.addr, align 8
  %1 = load ptr, ptr %begin.addr, align 8
  %sub.ptr.lhs.cast = ptrtoint ptr %0 to i64
  %sub.ptr.rhs.cast = ptrtoint ptr %1 to i64
  %sub.ptr.sub = sub i64 %sub.ptr.lhs.cast, %sub.ptr.rhs.cast
  %call = call noundef i64 @_ZN3fmt2v96detail11to_unsignedIlEENSt13make_unsignedIT_E4typeES4_(i64 noundef %sub.ptr.sub)
  store i64 %call, ptr %size, align 8
  %2 = load ptr, ptr %out.addr, align 8
  %3 = load ptr, ptr %begin.addr, align 8
  %4 = load i64, ptr %size, align 8
  %mul = mul i64 %4, 1
  call void @llvm.memcpy.p0.p0.i64(ptr align 1 %2, ptr align 1 %3, i64 %mul, i1 false)
  %5 = load ptr, ptr %out.addr, align 8
  %6 = load i64, ptr %size, align 8
  %add.ptr = getelementptr inbounds i8, ptr %5, i64 %6
  ret ptr %add.ptr
}

; Function Attrs: mustprogress nounwind uwtable
define linkonce_odr dso_local noundef i64 @_ZNK3fmt2v917basic_string_viewIcE4sizeEv(ptr noundef nonnull align 8 dereferenceable(16) %this) #4 comdat align 2 {
entry:
  %this.addr = alloca ptr, align 8
  store ptr %this, ptr %this.addr, align 8
  %this1 = load ptr, ptr %this.addr, align 8
  %size_ = getelementptr inbounds %"class.fmt::v9::basic_string_view", ptr %this1, i32 0, i32 1
  %0 = load i64, ptr %size_, align 8
  ret i64 %0
}

; Function Attrs: mustprogress nounwind uwtable
define linkonce_odr dso_local noundef ptr @_ZNK3fmt2v917basic_string_viewIcE4dataEv(ptr noundef nonnull align 8 dereferenceable(16) %this) #4 comdat align 2 {
entry:
  %this.addr = alloca ptr, align 8
  store ptr %this, ptr %this.addr, align 8
  %this1 = load ptr, ptr %this.addr, align 8
  %data_ = getelementptr inbounds %"class.fmt::v9::basic_string_view", ptr %this1, i32 0, i32 0
  %0 = load ptr, ptr %data_, align 8
  ret ptr %0
}

; Function Attrs: mustprogress nounwind uwtable
define linkonce_odr dso_local void @_ZN3fmt2v96detail6bufferIwE3setEPwm(ptr noundef nonnull align 8 dereferenceable(32) %this, ptr noundef %buf_data, i64 noundef %buf_capacity) #4 comdat align 2 {
entry:
  %this.addr = alloca ptr, align 8
  %buf_data.addr = alloca ptr, align 8
  %buf_capacity.addr = alloca i64, align 8
  store ptr %this, ptr %this.addr, align 8
  store ptr %buf_data, ptr %buf_data.addr, align 8
  store i64 %buf_capacity, ptr %buf_capacity.addr, align 8
  %this1 = load ptr, ptr %this.addr, align 8
  %0 = load ptr, ptr %buf_data.addr, align 8
  %ptr_ = getelementptr inbounds %"class.fmt::v9::detail::buffer.7", ptr %this1, i32 0, i32 1
  store ptr %0, ptr %ptr_, align 8
  %1 = load i64, ptr %buf_capacity.addr, align 8
  %capacity_ = getelementptr inbounds %"class.fmt::v9::detail::buffer.7", ptr %this1, i32 0, i32 3
  store i64 %1, ptr %capacity_, align 8
  ret void
}

; Function Attrs: mustprogress nounwind uwtable
define linkonce_odr dso_local void @_ZN3fmt2v96detail6bufferIwEC2EPwmm(ptr noundef nonnull align 8 dereferenceable(32) %this, ptr noundef %p, i64 noundef %sz, i64 noundef %cap) unnamed_addr #4 comdat align 2 {
entry:
  %this.addr = alloca ptr, align 8
  %p.addr = alloca ptr, align 8
  %sz.addr = alloca i64, align 8
  %cap.addr = alloca i64, align 8
  store ptr %this, ptr %this.addr, align 8
  store ptr %p, ptr %p.addr, align 8
  store i64 %sz, ptr %sz.addr, align 8
  store i64 %cap, ptr %cap.addr, align 8
  %this1 = load ptr, ptr %this.addr, align 8
  store ptr getelementptr inbounds ({ [3 x ptr] }, ptr @_ZTVN3fmt2v96detail6bufferIwEE, i32 0, i32 0, i32 2), ptr %this1, align 8
  %ptr_ = getelementptr inbounds %"class.fmt::v9::detail::buffer.7", ptr %this1, i32 0, i32 1
  %0 = load ptr, ptr %p.addr, align 8
  store ptr %0, ptr %ptr_, align 8
  %size_ = getelementptr inbounds %"class.fmt::v9::detail::buffer.7", ptr %this1, i32 0, i32 2
  %1 = load i64, ptr %sz.addr, align 8
  store i64 %1, ptr %size_, align 8
  %capacity_ = getelementptr inbounds %"class.fmt::v9::detail::buffer.7", ptr %this1, i32 0, i32 3
  %2 = load i64, ptr %cap.addr, align 8
  store i64 %2, ptr %capacity_, align 8
  ret void
}

; Function Attrs: mustprogress uwtable
define linkonce_odr dso_local void @_ZN3fmt2v96detail6bufferIwE9push_backERKw(ptr noundef nonnull align 8 dereferenceable(32) %this, ptr noundef nonnull align 4 dereferenceable(4) %value) #3 comdat align 2 {
entry:
  %this.addr = alloca ptr, align 8
  %value.addr = alloca ptr, align 8
  store ptr %this, ptr %this.addr, align 8
  store ptr %value, ptr %value.addr, align 8
  %this1 = load ptr, ptr %this.addr, align 8
  %size_ = getelementptr inbounds %"class.fmt::v9::detail::buffer.7", ptr %this1, i32 0, i32 2
  %0 = load i64, ptr %size_, align 8
  %add = add i64 %0, 1
  call void @_ZN3fmt2v96detail6bufferIwE11try_reserveEm(ptr noundef nonnull align 8 dereferenceable(32) %this1, i64 noundef %add)
  %1 = load ptr, ptr %value.addr, align 8
  %2 = load i32, ptr %1, align 4
  %ptr_ = getelementptr inbounds %"class.fmt::v9::detail::buffer.7", ptr %this1, i32 0, i32 1
  %3 = load ptr, ptr %ptr_, align 8
  %size_2 = getelementptr inbounds %"class.fmt::v9::detail::buffer.7", ptr %this1, i32 0, i32 2
  %4 = load i64, ptr %size_2, align 8
  %inc = add i64 %4, 1
  store i64 %inc, ptr %size_2, align 8
  %arrayidx = getelementptr inbounds i32, ptr %3, i64 %4
  store i32 %2, ptr %arrayidx, align 4
  ret void
}

; Function Attrs: mustprogress uwtable
define internal void @"_ZN3fmt2v96detail18for_each_codepointIZNS1_13utf8_to_utf16C1ENS0_17basic_string_viewIcEEE3$_0EEvS5_T_"(ptr %s.coerce0, i64 %s.coerce1, ptr %f.coerce) #3 {
entry:
  %s = alloca %"class.fmt::v9::basic_string_view", align 8
  %f = alloca %class.anon.12, align 8
  %decode = alloca %class.anon.35, align 8
  %p = alloca ptr, align 8
  %block_size = alloca i64, align 8
  %end = alloca ptr, align 8
  %num_chars_left = alloca i64, align 8
  %buf = alloca [7 x i8], align 1
  %buf_ptr = alloca ptr, align 8
  %end17 = alloca ptr, align 8
  %0 = getelementptr inbounds { ptr, i64 }, ptr %s, i32 0, i32 0
  store ptr %s.coerce0, ptr %0, align 8
  %1 = getelementptr inbounds { ptr, i64 }, ptr %s, i32 0, i32 1
  store i64 %s.coerce1, ptr %1, align 8
  %coerce.dive = getelementptr inbounds %class.anon.12, ptr %f, i32 0, i32 0
  store ptr %f.coerce, ptr %coerce.dive, align 8
  %2 = getelementptr inbounds %class.anon.35, ptr %decode, i32 0, i32 0
  call void @llvm.memcpy.p0.p0.i64(ptr align 8 %2, ptr align 8 %f, i64 8, i1 false)
  %call = call noundef ptr @_ZNK3fmt2v917basic_string_viewIcE4dataEv(ptr noundef nonnull align 8 dereferenceable(16) %s) #17
  store ptr %call, ptr %p, align 8
  store i64 4, ptr %block_size, align 8
  %call1 = call noundef i64 @_ZNK3fmt2v917basic_string_viewIcE4sizeEv(ptr noundef nonnull align 8 dereferenceable(16) %s) #17
  %cmp = icmp uge i64 %call1, 4
  br i1 %cmp, label %if.then, label %if.end8

if.then:                                          ; preds = %entry
  %3 = load ptr, ptr %p, align 8
  %call2 = call noundef i64 @_ZNK3fmt2v917basic_string_viewIcE4sizeEv(ptr noundef nonnull align 8 dereferenceable(16) %s) #17
  %add.ptr = getelementptr inbounds i8, ptr %3, i64 %call2
  %add.ptr3 = getelementptr inbounds i8, ptr %add.ptr, i64 -4
  %add.ptr4 = getelementptr inbounds i8, ptr %add.ptr3, i64 1
  store ptr %add.ptr4, ptr %end, align 8
  br label %for.cond

for.cond:                                         ; preds = %if.end, %if.then
  %4 = load ptr, ptr %p, align 8
  %5 = load ptr, ptr %end, align 8
  %cmp5 = icmp ult ptr %4, %5
  br i1 %cmp5, label %for.body, label %for.end

for.body:                                         ; preds = %for.cond
  %6 = load ptr, ptr %p, align 8
  %7 = load ptr, ptr %p, align 8
  %call6 = call noundef ptr @"_ZZN3fmt2v96detail18for_each_codepointIZNS1_13utf8_to_utf16C1ENS0_17basic_string_viewIcEEE3$_0EEvS5_T_ENKUlPKcS9_E_clES9_S9_"(ptr noundef nonnull align 8 dereferenceable(8) %decode, ptr noundef %6, ptr noundef %7)
  store ptr %call6, ptr %p, align 8
  %8 = load ptr, ptr %p, align 8
  %tobool = icmp ne ptr %8, null
  br i1 %tobool, label %if.end, label %if.then7

if.then7:                                         ; preds = %for.body
  br label %if.end31

if.end:                                           ; preds = %for.body
  br label %for.cond, !llvm.loop !5

for.end:                                          ; preds = %for.cond
  br label %if.end8

if.end8:                                          ; preds = %for.end, %entry
  %call9 = call noundef ptr @_ZNK3fmt2v917basic_string_viewIcE4dataEv(ptr noundef nonnull align 8 dereferenceable(16) %s) #17
  %call10 = call noundef i64 @_ZNK3fmt2v917basic_string_viewIcE4sizeEv(ptr noundef nonnull align 8 dereferenceable(16) %s) #17
  %add.ptr11 = getelementptr inbounds i8, ptr %call9, i64 %call10
  %9 = load ptr, ptr %p, align 8
  %sub.ptr.lhs.cast = ptrtoint ptr %add.ptr11 to i64
  %sub.ptr.rhs.cast = ptrtoint ptr %9 to i64
  %sub.ptr.sub = sub i64 %sub.ptr.lhs.cast, %sub.ptr.rhs.cast
  store i64 %sub.ptr.sub, ptr %num_chars_left, align 8
  %10 = load i64, ptr %num_chars_left, align 8
  %tobool12 = icmp ne i64 %10, 0
  br i1 %tobool12, label %if.then13, label %if.end31

if.then13:                                        ; preds = %if.end8
  call void @llvm.memset.p0.i64(ptr align 1 %buf, i8 0, i64 7, i1 false)
  %11 = load ptr, ptr %p, align 8
  %12 = load ptr, ptr %p, align 8
  %13 = load i64, ptr %num_chars_left, align 8
  %add.ptr14 = getelementptr inbounds i8, ptr %12, i64 %13
  %arraydecay = getelementptr inbounds [7 x i8], ptr %buf, i64 0, i64 0
  %call15 = call noundef ptr @_ZN3fmt2v96detail8copy_strIcKccTnNSt9enable_ifIXaasr3std7is_sameINSt12remove_constIT0_E4typeET1_EE5valuesr7is_charIS9_EE5valueEiE4typeELi0EEEPS9_PS6_SD_SC_(ptr noundef %11, ptr noundef %add.ptr14, ptr noundef %arraydecay)
  %arraydecay16 = getelementptr inbounds [7 x i8], ptr %buf, i64 0, i64 0
  store ptr %arraydecay16, ptr %buf_ptr, align 8
  br label %do.body

do.body:                                          ; preds = %do.cond, %if.then13
  %14 = load ptr, ptr %buf_ptr, align 8
  %15 = load ptr, ptr %p, align 8
  %call18 = call noundef ptr @"_ZZN3fmt2v96detail18for_each_codepointIZNS1_13utf8_to_utf16C1ENS0_17basic_string_viewIcEEE3$_0EEvS5_T_ENKUlPKcS9_E_clES9_S9_"(ptr noundef nonnull align 8 dereferenceable(8) %decode, ptr noundef %14, ptr noundef %15)
  store ptr %call18, ptr %end17, align 8
  %16 = load ptr, ptr %end17, align 8
  %tobool19 = icmp ne ptr %16, null
  br i1 %tobool19, label %if.end21, label %if.then20

if.then20:                                        ; preds = %do.body
  br label %if.end31

if.end21:                                         ; preds = %do.body
  %17 = load ptr, ptr %end17, align 8
  %18 = load ptr, ptr %buf_ptr, align 8
  %sub.ptr.lhs.cast22 = ptrtoint ptr %17 to i64
  %sub.ptr.rhs.cast23 = ptrtoint ptr %18 to i64
  %sub.ptr.sub24 = sub i64 %sub.ptr.lhs.cast22, %sub.ptr.rhs.cast23
  %19 = load ptr, ptr %p, align 8
  %add.ptr25 = getelementptr inbounds i8, ptr %19, i64 %sub.ptr.sub24
  store ptr %add.ptr25, ptr %p, align 8
  %20 = load ptr, ptr %end17, align 8
  store ptr %20, ptr %buf_ptr, align 8
  br label %do.cond

do.cond:                                          ; preds = %if.end21
  %21 = load ptr, ptr %buf_ptr, align 8
  %arraydecay26 = getelementptr inbounds [7 x i8], ptr %buf, i64 0, i64 0
  %sub.ptr.lhs.cast27 = ptrtoint ptr %21 to i64
  %sub.ptr.rhs.cast28 = ptrtoint ptr %arraydecay26 to i64
  %sub.ptr.sub29 = sub i64 %sub.ptr.lhs.cast27, %sub.ptr.rhs.cast28
  %22 = load i64, ptr %num_chars_left, align 8
  %cmp30 = icmp slt i64 %sub.ptr.sub29, %22
  br i1 %cmp30, label %do.body, label %do.end, !llvm.loop !7

do.end:                                           ; preds = %do.cond
  br label %if.end31

if.end31:                                         ; preds = %do.end, %if.then20, %if.end8, %if.then7
  ret void
}

; Function Attrs: mustprogress nounwind uwtable
define linkonce_odr dso_local void @_ZN3fmt2v919basic_memory_bufferIwLm500ESaIwEEC2ERKS2_(ptr noundef nonnull align 8 dereferenceable(2040) %this, ptr noundef nonnull align 1 dereferenceable(1) %alloc) unnamed_addr #4 comdat align 2 {
entry:
  %this.addr = alloca ptr, align 8
  %alloc.addr = alloca ptr, align 8
  store ptr %this, ptr %this.addr, align 8
  store ptr %alloc, ptr %alloc.addr, align 8
  %this1 = load ptr, ptr %this.addr, align 8
  call void @_ZN3fmt2v96detail6bufferIwEC2EPwmm(ptr noundef nonnull align 8 dereferenceable(32) %this1, ptr noundef null, i64 noundef 0, i64 noundef 0) #17
  store ptr getelementptr inbounds ({ [3 x ptr] }, ptr @_ZTVN3fmt2v919basic_memory_bufferIwLm500ESaIwEEE, i32 0, i32 0, i32 2), ptr %this1, align 8
  %alloc_ = getelementptr inbounds %"class.fmt::v9::basic_memory_buffer.6", ptr %this1, i32 0, i32 2
  %0 = load ptr, ptr %alloc.addr, align 8
  call void @_ZNSaIwEC1ERKS_(ptr noundef nonnull align 1 dereferenceable(1) %alloc_, ptr noundef nonnull align 1 dereferenceable(1) %0) #17
  %store_ = getelementptr inbounds %"class.fmt::v9::basic_memory_buffer.6", ptr %this1, i32 0, i32 1
  %arraydecay = getelementptr inbounds [500 x i32], ptr %store_, i64 0, i64 0
  call void @_ZN3fmt2v96detail6bufferIwE3setEPwm(ptr noundef nonnull align 8 dereferenceable(32) %this1, ptr noundef %arraydecay, i64 noundef 500) #17
  ret void
}

; Function Attrs: mustprogress uwtable
define dso_local void @_ZN3fmt2v96detail13utf8_to_utf16C2ENS0_17basic_string_viewIcEE(ptr noundef nonnull align 8 dereferenceable(2040) %this, ptr %s.coerce0, i64 %s.coerce1) unnamed_addr #3 align 2 personality ptr @__gxx_personality_v0 {
entry:
  %s = alloca %"class.fmt::v9::basic_string_view", align 8
  %this.addr = alloca ptr, align 8
  %ref.tmp = alloca %"class.std::allocator.8", align 1
  %exn.slot = alloca ptr, align 8
  %ehselector.slot = alloca i32, align 4
  %agg.tmp = alloca %"class.fmt::v9::basic_string_view", align 8
  %agg.tmp2 = alloca %class.anon.12, align 8
  %ref.tmp6 = alloca i32, align 4
  %0 = getelementptr inbounds { ptr, i64 }, ptr %s, i32 0, i32 0
  store ptr %s.coerce0, ptr %0, align 8
  %1 = getelementptr inbounds { ptr, i64 }, ptr %s, i32 0, i32 1
  store i64 %s.coerce1, ptr %1, align 8
  store ptr %this, ptr %this.addr, align 8
  %this1 = load ptr, ptr %this.addr, align 8
  %buffer_ = getelementptr inbounds %"class.fmt::v9::detail::utf8_to_utf16", ptr %this1, i32 0, i32 0
  call void @_ZNSaIwEC1Ev(ptr noundef nonnull align 1 dereferenceable(1) %ref.tmp) #17
  invoke void @_ZN3fmt2v919basic_memory_bufferIwLm500ESaIwEEC2ERKS2_(ptr noundef nonnull align 8 dereferenceable(2040) %buffer_, ptr noundef nonnull align 1 dereferenceable(1) %ref.tmp)
          to label %invoke.cont unwind label %lpad

invoke.cont:                                      ; preds = %entry
  call void @_ZNSaIwED1Ev(ptr noundef nonnull align 1 dereferenceable(1) %ref.tmp) #17
  call void @llvm.memcpy.p0.p0.i64(ptr align 8 %agg.tmp, ptr align 8 %s, i64 16, i1 false)
  %2 = getelementptr inbounds %class.anon.12, ptr %agg.tmp2, i32 0, i32 0
  store ptr %this1, ptr %2, align 8
  %3 = getelementptr inbounds { ptr, i64 }, ptr %agg.tmp, i32 0, i32 0
  %4 = load ptr, ptr %3, align 8
  %5 = getelementptr inbounds { ptr, i64 }, ptr %agg.tmp, i32 0, i32 1
  %6 = load i64, ptr %5, align 8
  %coerce.dive = getelementptr inbounds %class.anon.12, ptr %agg.tmp2, i32 0, i32 0
  %7 = load ptr, ptr %coerce.dive, align 8
  invoke void @"_ZN3fmt2v96detail18for_each_codepointIZNS1_13utf8_to_utf16C1ENS0_17basic_string_viewIcEEE3$_0EEvS5_T_"(ptr %4, i64 %6, ptr %7)
          to label %invoke.cont4 unwind label %lpad3

invoke.cont4:                                     ; preds = %invoke.cont
  %buffer_5 = getelementptr inbounds %"class.fmt::v9::detail::utf8_to_utf16", ptr %this1, i32 0, i32 0
  store i32 0, ptr %ref.tmp6, align 4
  invoke void @_ZN3fmt2v96detail6bufferIwE9push_backERKw(ptr noundef nonnull align 8 dereferenceable(32) %buffer_5, ptr noundef nonnull align 4 dereferenceable(4) %ref.tmp6)
          to label %invoke.cont7 unwind label %lpad3

invoke.cont7:                                     ; preds = %invoke.cont4
  ret void

lpad:                                             ; preds = %entry
  %8 = landingpad { ptr, i32 }
          cleanup
  %9 = extractvalue { ptr, i32 } %8, 0
  store ptr %9, ptr %exn.slot, align 8
  %10 = extractvalue { ptr, i32 } %8, 1
  store i32 %10, ptr %ehselector.slot, align 4
  call void @_ZNSaIwED1Ev(ptr noundef nonnull align 1 dereferenceable(1) %ref.tmp) #17
  br label %eh.resume

lpad3:                                            ; preds = %invoke.cont4, %invoke.cont
  %11 = landingpad { ptr, i32 }
          cleanup
  %12 = extractvalue { ptr, i32 } %11, 0
  store ptr %12, ptr %exn.slot, align 8
  %13 = extractvalue { ptr, i32 } %11, 1
  store i32 %13, ptr %ehselector.slot, align 4
  call void @_ZN3fmt2v919basic_memory_bufferIwLm500ESaIwEED2Ev(ptr noundef nonnull align 8 dereferenceable(2040) %buffer_) #17
  br label %eh.resume

eh.resume:                                        ; preds = %lpad3, %lpad
  %exn = load ptr, ptr %exn.slot, align 8
  %sel = load i32, ptr %ehselector.slot, align 4
  %lpad.val = insertvalue { ptr, i32 } poison, ptr %exn, 0
  %lpad.val8 = insertvalue { ptr, i32 } %lpad.val, i32 %sel, 1
  resume { ptr, i32 } %lpad.val8
}