; Function Attrs: mustprogress uwtable
define dso_local void @_ZN3fmt2v96detail13utf8_to_utf16C2ENS0_17basic_string_viewIcEE(ptr noundef nonnull align 8 dereferenceable(2040) %this, ptr %s.coerce0, i64 %s.coerce1) unnamed_addr #4 align 2 personality ptr @__gxx_personality_v0 {
entry:
  %buf.i = alloca [7 x i8], align 1
  %ref.tmp = alloca %"class.std::allocator.8", align 1
  call void @_ZNSaIwEC1Ev(ptr noundef nonnull align 1 dereferenceable(1) %ref.tmp) #25
  %ptr_.i.i = getelementptr inbounds i8, ptr %this, i64 8
  %capacity_.i.i = getelementptr inbounds i8, ptr %this, i64 24
  call void @llvm.memset.p0.i64(ptr noundef nonnull align 8 dereferenceable(24) %ptr_.i.i, i8 0, i64 24, i1 false)
  store ptr getelementptr inbounds ({ [3 x ptr] }, ptr @_ZTVN3fmt2v919basic_memory_bufferIwLm500ESaIwEEE, i64 0, i32 0, i64 2), ptr %this, align 8
  %alloc_.i = getelementptr inbounds i8, ptr %this, i64 2032
  call void @_ZNSaIwEC1ERKS_(ptr noundef nonnull align 1 dereferenceable(1) %alloc_.i, ptr noundef nonnull align 1 dereferenceable(1) %ref.tmp) #25
  %store_.i = getelementptr inbounds i8, ptr %this, i64 32
  store ptr %store_.i, ptr %ptr_.i.i, align 8
  store i64 500, ptr %capacity_.i.i, align 8
  call void @_ZNSaIwED1Ev(ptr noundef nonnull align 1 dereferenceable(1) %ref.tmp) #25
  call void @llvm.lifetime.start.p0(i64 7, ptr nonnull %buf.i)
  %cmp.i = icmp ugt i64 %s.coerce1, 3
  br i1 %cmp.i, label %if.then.i, label %if.end8.i

if.then.i:                                        ; preds = %entry
  %add.ptr.i = getelementptr inbounds i8, ptr %s.coerce0, i64 %s.coerce1
  %add.ptr4.i = getelementptr inbounds i8, ptr %add.ptr.i, i64 -3
  br label %for.cond.i

for.cond.i:                                       ; preds = %call6.i.noexc, %if.then.i
  %p.0.i = phi ptr [ %s.coerce0, %if.then.i ], [ %call6.i1, %call6.i.noexc ]
  %cmp5.i = icmp ult ptr %p.0.i, %add.ptr4.i
  br i1 %cmp5.i, label %for.body.i, label %if.end8.i

for.body.i:                                       ; preds = %for.cond.i
  %call6.i1 = invoke fastcc noundef ptr @"_ZZN3fmt2v96detail18for_each_codepointIZNS1_13utf8_to_utf16C1ENS0_17basic_string_viewIcEEE3$_0EEvS5_T_ENKUlPKcS9_E_clES9_S9_"(ptr nonnull %this, ptr noundef %p.0.i)
          to label %call6.i.noexc unwind label %lpad3.loopexit.split-lp.loopexit

call6.i.noexc:                                    ; preds = %for.body.i
  %tobool.not.i = icmp eq ptr %call6.i1, null
  br i1 %tobool.not.i, label %invoke.cont4, label %for.cond.i, !llvm.loop !24

if.end8.i:                                        ; preds = %for.cond.i, %entry
  %p.1.i = phi ptr [ %s.coerce0, %entry ], [ %p.0.i, %for.cond.i ]
  %add.ptr11.i = getelementptr inbounds i8, ptr %s.coerce0, i64 %s.coerce1
  %sub.ptr.lhs.cast.i = ptrtoint ptr %add.ptr11.i to i64
  %sub.ptr.rhs.cast.i = ptrtoint ptr %p.1.i to i64
  %sub.ptr.sub.i = sub i64 %sub.ptr.lhs.cast.i, %sub.ptr.rhs.cast.i
  %tobool12.not.i = icmp eq ptr %add.ptr11.i, %p.1.i
  br i1 %tobool12.not.i, label %invoke.cont4, label %if.then13.i

if.then13.i:                                      ; preds = %if.end8.i
  call void @llvm.memset.p0.i64(ptr noundef nonnull align 1 dereferenceable(7) %buf.i, i8 0, i64 7, i1 false)
  call void @llvm.memcpy.p0.p0.i64(ptr nonnull align 1 %buf.i, ptr align 1 %p.1.i, i64 %sub.ptr.sub.i, i1 false)
  %sub.ptr.rhs.cast28.i = ptrtoint ptr %buf.i to i64
  br label %do.body.i

do.body.i:                                        ; preds = %call18.i.noexc, %if.then13.i
  %buf_ptr.0.i = phi ptr [ %buf.i, %if.then13.i ], [ %call18.i2, %call18.i.noexc ]
  %call18.i2 = invoke fastcc noundef ptr @"_ZZN3fmt2v96detail18for_each_codepointIZNS1_13utf8_to_utf16C1ENS0_17basic_string_viewIcEEE3$_0EEvS5_T_ENKUlPKcS9_E_clES9_S9_"(ptr nonnull %this, ptr noundef nonnull %buf_ptr.0.i)
          to label %call18.i.noexc unwind label %lpad3.loopexit

call18.i.noexc:                                   ; preds = %do.body.i
  %tobool19.not.i = icmp ne ptr %call18.i2, null
  %sub.ptr.lhs.cast22.i = ptrtoint ptr %call18.i2 to i64
  %sub.ptr.sub29.i = sub i64 %sub.ptr.lhs.cast22.i, %sub.ptr.rhs.cast28.i
  %cmp30.i = icmp slt i64 %sub.ptr.sub29.i, %sub.ptr.sub.i
  %or.cond = and i1 %tobool19.not.i, %cmp30.i
  br i1 %or.cond, label %do.body.i, label %invoke.cont4, !llvm.loop !25

invoke.cont4:                                     ; preds = %call6.i.noexc, %call18.i.noexc, %if.end8.i
  call void @llvm.lifetime.end.p0(i64 7, ptr nonnull %buf.i)
  %size_.i = getelementptr inbounds i8, ptr %this, i64 16
  %0 = load i64, ptr %size_.i, align 8
  %add.i = add i64 %0, 1
  %1 = load i64, ptr %capacity_.i.i, align 8
  %cmp.i.i = icmp ult i64 %1, %add.i
  br i1 %cmp.i.i, label %if.then.i.i, label %invoke.cont7

if.then.i.i:                                      ; preds = %invoke.cont4
  %vtable.i.i = load ptr, ptr %this, align 8
  %2 = load ptr, ptr %vtable.i.i, align 8
  invoke void %2(ptr noundef nonnull align 8 dereferenceable(32) %this, i64 noundef %add.i)
          to label %.noexc unwind label %lpad3.loopexit.split-lp.loopexit.split-lp

.noexc:                                           ; preds = %if.then.i.i
  %.pre.i = load i64, ptr %size_.i, align 8
  %.pre1.i = add i64 %.pre.i, 1
  br label %invoke.cont7

invoke.cont7:                                     ; preds = %.noexc, %invoke.cont4
  %inc.pre-phi.i = phi i64 [ %add.i, %invoke.cont4 ], [ %.pre1.i, %.noexc ]
  %3 = phi i64 [ %0, %invoke.cont4 ], [ %.pre.i, %.noexc ]
  %4 = load ptr, ptr %ptr_.i.i, align 8
  store i64 %inc.pre-phi.i, ptr %size_.i, align 8
  %arrayidx.i = getelementptr inbounds i32, ptr %4, i64 %3
  store i32 0, ptr %arrayidx.i, align 4
  ret void

lpad3.loopexit:                                   ; preds = %do.body.i
  %lpad.loopexit = landingpad { ptr, i32 }
          cleanup
  br label %lpad3

lpad3.loopexit.split-lp.loopexit:                 ; preds = %for.body.i
  %lpad.loopexit4 = landingpad { ptr, i32 }
          cleanup
  br label %lpad3

lpad3.loopexit.split-lp.loopexit.split-lp:        ; preds = %if.then.i.i
  %lpad.loopexit.split-lp5 = landingpad { ptr, i32 }
          cleanup
  br label %lpad3

lpad3:                                            ; preds = %lpad3.loopexit.split-lp.loopexit, %lpad3.loopexit.split-lp.loopexit.split-lp, %lpad3.loopexit
  %lpad.phi = phi { ptr, i32 } [ %lpad.loopexit, %lpad3.loopexit ], [ %lpad.loopexit4, %lpad3.loopexit.split-lp.loopexit ], [ %lpad.loopexit.split-lp5, %lpad3.loopexit.split-lp.loopexit.split-lp ]
  call void @_ZN3fmt2v919basic_memory_bufferIwLm500ESaIwEED2Ev(ptr noundef nonnull align 8 dereferenceable(2040) %this) #25
  resume { ptr, i32 } %lpad.phi
}